target datalayout = "e-m:e-p270:32:32-p271:32:32-p272:64:64-i64:64-i128:128-f80:128-n8:16:32:64-S128"
target triple = "x86_64-pc-linux-gnu"

%struct.HeapTupleData = type { i32, %struct.ItemPointerData, i32, ptr }
%struct.ItemPointerData = type { %struct.BlockIdData, i16 }
%struct.BlockIdData = type { i16, i16 }
%struct.HeapTupleHeaderData = type { %union.anon, %struct.ItemPointerData, i16, i16, i8, [0 x i8] }
%union.anon = type { %struct.HeapTupleFields }
%struct.HeapTupleFields = type { i32, i32, %union.anon.0 }
%union.anon.0 = type { i32 }
%struct.nameData = type { [64 x i8] }
%struct.FormData_pg_type = type { i32, %struct.nameData, i32, i32, i16, i8, i8, i8, i8, i8, i8, i32, i32, i32, i32, i32, i32, i32, i32, i32, i32, i32, i8, i8, i8, i32, i32, i32, i32 }

@.str.1 = private unnamed_addr constant [12 x i8] c"lsyscache.c\00", align 1
@.str.13 = private unnamed_addr constant [32 x i8] c"cache lookup failed for type %u\00", align 1
@Mode = external global i32, align 4
@.str.14 = private unnamed_addr constant [42 x i8] c"binary I/O not supported during bootstrap\00", align 1
@__func__.get_type_io_data = private unnamed_addr constant [17 x i8] c"get_type_io_data\00", align 1

; Function Attrs: nounwind uwtable
define dso_local i32 @getTypeIOParam(ptr noundef %0) #0 {
  %2 = alloca i32, align 4
  %3 = alloca ptr, align 8
  %4 = alloca ptr, align 8
  %5 = alloca i32, align 4
  store ptr %0, ptr %3, align 8
  call void @llvm.lifetime.start.p0(i64 8, ptr %4) #7
  %6 = load ptr, ptr %3, align 8
  %7 = call ptr @GETSTRUCT(ptr noundef %6)
  store ptr %7, ptr %4, align 8
  %8 = load ptr, ptr %4, align 8
  %9 = getelementptr inbounds nuw %struct.FormData_pg_type, ptr %8, i32 0, i32 13
  %10 = load i32, ptr %9, align 4
  %11 = icmp ne i32 %10, 0
  br i1 %11, label %12, label %16

12:                                               ; preds = %1
  %13 = load ptr, ptr %4, align 8
  %14 = getelementptr inbounds nuw %struct.FormData_pg_type, ptr %13, i32 0, i32 13
  %15 = load i32, ptr %14, align 4
  store i32 %15, ptr %2, align 4
  store i32 1, ptr %5, align 4
  br label %20

16:                                               ; preds = %1
  %17 = load ptr, ptr %4, align 8
  %18 = getelementptr inbounds nuw %struct.FormData_pg_type, ptr %17, i32 0, i32 0
  %19 = load i32, ptr %18, align 4
  store i32 %19, ptr %2, align 4
  store i32 1, ptr %5, align 4
  br label %20

20:                                               ; preds = %16, %12
  call void @llvm.lifetime.end.p0(i64 8, ptr %4) #7
  %21 = load i32, ptr %2, align 4
  ret i32 %21
}

; Function Attrs: inlinehint nounwind uwtable
define internal ptr @GETSTRUCT(ptr noundef %0) #2 {
  %2 = alloca ptr, align 8
  store ptr %0, ptr %2, align 8
  %3 = load ptr, ptr %2, align 8
  %4 = getelementptr inbounds nuw %struct.HeapTupleData, ptr %3, i32 0, i32 3
  %5 = load ptr, ptr %4, align 8
  %6 = load ptr, ptr %2, align 8
  %7 = getelementptr inbounds nuw %struct.HeapTupleData, ptr %6, i32 0, i32 3
  %8 = load ptr, ptr %7, align 8
  %9 = getelementptr inbounds nuw %struct.HeapTupleHeaderData, ptr %8, i32 0, i32 4
  %10 = load i8, ptr %9, align 2
  %11 = zext i8 %10 to i32
  %12 = sext i32 %11 to i64
  %13 = getelementptr inbounds i8, ptr %5, i64 %12
  ret ptr %13
}

; Function Attrs: inlinehint nounwind uwtable
define internal i64 @ObjectIdGetDatum(i32 noundef %0) #2 {
  %2 = alloca i32, align 4
  store i32 %0, ptr %2, align 4
  %3 = load i32, ptr %2, align 4
  %4 = zext i32 %3 to i64
  ret i64 %4
}

; Function Attrs: nounwind uwtable
define dso_local void @get_type_io_data(i32 noundef %0, i32 noundef %1, ptr noundef %2, ptr noundef %3, ptr noundef %4, ptr noundef %5, ptr noundef %6, ptr noundef %7) #0 {
  %9 = alloca i32, align 4
  %10 = alloca i32, align 4
  %11 = alloca ptr, align 8
  %12 = alloca ptr, align 8
  %13 = alloca ptr, align 8
  %14 = alloca ptr, align 8
  %15 = alloca ptr, align 8
  %16 = alloca ptr, align 8
  %17 = alloca ptr, align 8
  %18 = alloca ptr, align 8
  %19 = alloca i32, align 4
  %20 = alloca i32, align 4
  %21 = alloca i32, align 4
  store i32 %0, ptr %9, align 4
  store i32 %1, ptr %10, align 4
  store ptr %2, ptr %11, align 8
  store ptr %3, ptr %12, align 8
  store ptr %4, ptr %13, align 8
  store ptr %5, ptr %14, align 8
  store ptr %6, ptr %15, align 8
  store ptr %7, ptr %16, align 8
  call void @llvm.lifetime.start.p0(i64 8, ptr %17) #7
  call void @llvm.lifetime.start.p0(i64 8, ptr %18) #7
  %22 = load i32, ptr @Mode, align 4
  %23 = icmp eq i32 %22, 0
  br i1 %23, label %24, label %50

24:                                               ; preds = %8
  call void @llvm.lifetime.start.p0(i64 4, ptr %19) #7
  call void @llvm.lifetime.start.p0(i64 4, ptr %20) #7
  %25 = load i32, ptr %9, align 4
  %26 = load ptr, ptr %11, align 8
  %27 = load ptr, ptr %12, align 8
  %28 = load ptr, ptr %13, align 8
  %29 = load ptr, ptr %14, align 8
  %30 = load ptr, ptr %15, align 8
  call void @boot_get_type_io_data(i32 noundef %25, ptr noundef %26, ptr noundef %27, ptr noundef %28, ptr noundef %29, ptr noundef %30, ptr noundef %19, ptr noundef %20)
  %31 = load i32, ptr %10, align 4
  switch i32 %31, label %38 [
    i32 0, label %32
    i32 1, label %35
  ]

32:                                               ; preds = %24
  %33 = load i32, ptr %19, align 4
  %34 = load ptr, ptr %16, align 8
  store i32 %33, ptr %34, align 4
  br label %49

35:                                               ; preds = %24
  %36 = load i32, ptr %20, align 4
  %37 = load ptr, ptr %16, align 8
  store i32 %36, ptr %37, align 4
  br label %49

38:                                               ; preds = %24
  br label %39

39:                                               ; preds = %38
  br i1 true, label %40, label %42

40:                                               ; preds = %39
  %41 = call zeroext i1 @errstart_cold(i32 noundef 21, ptr noundef null) #8
  br i1 %41, label %44, label %46

42:                                               ; preds = %39
  %43 = call zeroext i1 @errstart(i32 noundef 21, ptr noundef null)
  br i1 %43, label %44, label %46

44:                                               ; preds = %42, %40
  %45 = call i32 (ptr, ...) @errmsg_internal(ptr noundef @.str.14)
  call void @errfinish(ptr noundef @.str.1, i32 noundef 2390, ptr noundef @__func__.get_type_io_data)
  br label %46

46:                                               ; preds = %44, %42, %40
  unreachable

47:                                               ; No predecessors!
  br label %48

48:                                               ; preds = %47
  br label %49

49:                                               ; preds = %48, %35, %32
  store i32 1, ptr %21, align 4
  call void @llvm.lifetime.end.p0(i64 4, ptr %20) #7
  call void @llvm.lifetime.end.p0(i64 4, ptr %19) #7
  br label %115

50:                                               ; preds = %8
  %51 = load i32, ptr %9, align 4
  %52 = call i64 @ObjectIdGetDatum(i32 noundef %51)
  %53 = call ptr @SearchSysCache1(i32 noundef 82, i64 noundef %52)
  store ptr %53, ptr %17, align 8
  %54 = load ptr, ptr %17, align 8
  %55 = icmp ne ptr %54, null
  br i1 %55, label %68, label %56

56:                                               ; preds = %50
  br label %57

57:                                               ; preds = %56
  br i1 true, label %58, label %60

58:                                               ; preds = %57
  %59 = call zeroext i1 @errstart_cold(i32 noundef 21, ptr noundef null) #8
  br i1 %59, label %62, label %65

60:                                               ; preds = %57
  %61 = call zeroext i1 @errstart(i32 noundef 21, ptr noundef null)
  br i1 %61, label %62, label %65

62:                                               ; preds = %60, %58
  %63 = load i32, ptr %9, align 4
  %64 = call i32 (ptr, ...) @errmsg_internal(ptr noundef @.str.13, i32 noundef %63)
  call void @errfinish(ptr noundef @.str.1, i32 noundef 2398, ptr noundef @__func__.get_type_io_data)
  br label %65

65:                                               ; preds = %62, %60, %58
  unreachable

66:                                               ; No predecessors!
  br label %67

67:                                               ; preds = %66
  br label %68

68:                                               ; preds = %67, %50
  %69 = load ptr, ptr %17, align 8
  %70 = call ptr @GETSTRUCT(ptr noundef %69)
  store ptr %70, ptr %18, align 8
  %71 = load ptr, ptr %18, align 8
  %72 = getelementptr inbounds nuw %struct.FormData_pg_type, ptr %71, i32 0, i32 4
  %73 = load i16, ptr %72, align 4
  %74 = load ptr, ptr %11, align 8
  store i16 %73, ptr %74, align 2
  %75 = load ptr, ptr %18, align 8
  %76 = getelementptr inbounds nuw %struct.FormData_pg_type, ptr %75, i32 0, i32 5
  %77 = load i8, ptr %76, align 2, !range !4, !noundef !5
  %78 = trunc i8 %77 to i1
  %79 = load ptr, ptr %12, align 8
  %80 = zext i1 %78 to i8
  store i8 %80, ptr %79, align 1
  %81 = load ptr, ptr %18, align 8
  %82 = getelementptr inbounds nuw %struct.FormData_pg_type, ptr %81, i32 0, i32 22
  %83 = load i8, ptr %82, align 4
  %84 = load ptr, ptr %13, align 8
  store i8 %83, ptr %84, align 1
  %85 = load ptr, ptr %18, align 8
  %86 = getelementptr inbounds nuw %struct.FormData_pg_type, ptr %85, i32 0, i32 10
  %87 = load i8, ptr %86, align 1
  %88 = load ptr, ptr %14, align 8
  store i8 %87, ptr %88, align 1
  %89 = load ptr, ptr %17, align 8
  %90 = call i32 @getTypeIOParam(ptr noundef %89)
  %91 = load ptr, ptr %15, align 8
  store i32 %90, ptr %91, align 4
  %92 = load i32, ptr %10, align 4
  switch i32 %92, label %113 [
    i32 0, label %93
    i32 1, label %98
    i32 2, label %103
    i32 3, label %108
  ]

93:                                               ; preds = %68
  %94 = load ptr, ptr %18, align 8
  %95 = getelementptr inbounds nuw %struct.FormData_pg_type, ptr %94, i32 0, i32 15
  %96 = load i32, ptr %95, align 4
  %97 = load ptr, ptr %16, align 8
  store i32 %96, ptr %97, align 4
  br label %113

98:                                               ; preds = %68
  %99 = load ptr, ptr %18, align 8
  %100 = getelementptr inbounds nuw %struct.FormData_pg_type, ptr %99, i32 0, i32 16
  %101 = load i32, ptr %100, align 4
  %102 = load ptr, ptr %16, align 8
  store i32 %101, ptr %102, align 4
  br label %113

103:                                              ; preds = %68
  %104 = load ptr, ptr %18, align 8
  %105 = getelementptr inbounds nuw %struct.FormData_pg_type, ptr %104, i32 0, i32 17
  %106 = load i32, ptr %105, align 4
  %107 = load ptr, ptr %16, align 8
  store i32 %106, ptr %107, align 4
  br label %113

108:                                              ; preds = %68
  %109 = load ptr, ptr %18, align 8
  %110 = getelementptr inbounds nuw %struct.FormData_pg_type, ptr %109, i32 0, i32 18
  %111 = load i32, ptr %110, align 4
  %112 = load ptr, ptr %16, align 8
  store i32 %111, ptr %112, align 4
  br label %113

113:                                              ; preds = %68, %108, %103, %98, %93
  %114 = load ptr, ptr %17, align 8
  call void @ReleaseSysCache(ptr noundef %114)
  store i32 0, ptr %21, align 4
  br label %115

115:                                              ; preds = %113, %49
  call void @llvm.lifetime.end.p0(i64 8, ptr %18) #7
  call void @llvm.lifetime.end.p0(i64 8, ptr %17) #7
  %116 = load i32, ptr %21, align 4
  switch i32 %116, label %118 [
    i32 0, label %117
    i32 1, label %117
  ]

117:                                              ; preds = %115, %115
  ret void

118:                                              ; preds = %115
  unreachable
}