; Function Attrs: nounwind uwtable
define dso_local void @get_type_io_data(i32 noundef %0, i32 noundef %1, ptr noundef %2, ptr noundef %3, ptr noundef %4, ptr noundef %5, ptr noundef %6, ptr noundef writeonly captures(none) %7) local_unnamed_addr #0 {
  %9 = alloca i32, align 4
  %10 = alloca i32, align 4
  %11 = load i32, ptr @Mode, align 4
  %12 = icmp eq i32 %11, 0
  br i1 %12, label %13, label %19

13:                                               ; preds = %8
  call void @llvm.lifetime.start.p0(i64 4, ptr nonnull %9) #8
  call void @llvm.lifetime.start.p0(i64 4, ptr nonnull %10) #8
  call void @boot_get_type_io_data(i32 noundef %0, ptr noundef %2, ptr noundef %3, ptr noundef %4, ptr noundef %5, ptr noundef %6, ptr noundef nonnull %9, ptr noundef nonnull %10) #8
  switch i32 %1, label %15 [
    i32 0, label %18
    i32 1, label %14
  ]

14:                                               ; preds = %13
  br label %18

15:                                               ; preds = %13
  %16 = call zeroext i1 @errstart_cold(i32 noundef 21, ptr noundef null) #9
  call void @llvm.assume(i1 %16)
  %17 = call i32 (ptr, ...) @errmsg_internal(ptr noundef nonnull @.str.14) #8
  call void @errfinish(ptr noundef nonnull @.str.1, i32 noundef 2390, ptr noundef nonnull @__func__.get_type_io_data) #8
  unreachable

18:                                               ; preds = %13, %14
  %storemerge.in = phi ptr [ %10, %14 ], [ %9, %13 ]
  %storemerge = load i32, ptr %storemerge.in, align 4
  store i32 %storemerge, ptr %7, align 4
  call void @llvm.lifetime.end.p0(i64 4, ptr nonnull %10) #8
  call void @llvm.lifetime.end.p0(i64 4, ptr nonnull %9) #8
  br label %54

19:                                               ; preds = %8
  %20 = zext i32 %0 to i64
  %21 = tail call ptr @SearchSysCache1(i32 noundef 82, i64 noundef %20) #8
  %.not = icmp eq ptr %21, null
  br i1 %.not, label %22, label %25

22:                                               ; preds = %19
  %23 = tail call zeroext i1 @errstart_cold(i32 noundef 21, ptr noundef null) #9
  tail call void @llvm.assume(i1 %23)
  %24 = tail call i32 (ptr, ...) @errmsg_internal(ptr noundef nonnull @.str.13, i32 noundef %0) #8
  tail call void @errfinish(ptr noundef nonnull @.str.1, i32 noundef 2398, ptr noundef nonnull @__func__.get_type_io_data) #8
  unreachable

25:                                               ; preds = %19
  %26 = getelementptr i8, ptr %21, i64 16
  %.val = load ptr, ptr %26, align 8
  %27 = getelementptr inbounds nuw i8, ptr %.val, i64 22
  %28 = load i8, ptr %27, align 2
  %29 = zext i8 %28 to i64
  %30 = getelementptr inbounds nuw i8, ptr %.val, i64 %29
  %31 = getelementptr inbounds nuw i8, ptr %30, i64 76
  %32 = load i16, ptr %31, align 4
  store i16 %32, ptr %2, align 2
  %33 = getelementptr inbounds nuw i8, ptr %30, i64 78
  %34 = load i8, ptr %33, align 2, !range !14, !noundef !15
  store i8 %34, ptr %3, align 1
  %35 = getelementptr inbounds nuw i8, ptr %30, i64 128
  %36 = load i8, ptr %35, align 4
  store i8 %36, ptr %4, align 1
  %37 = getelementptr inbounds nuw i8, ptr %30, i64 83
  %38 = load i8, ptr %37, align 1
  store i8 %38, ptr %5, align 1
  %.val.i = load ptr, ptr %26, align 8
  %39 = getelementptr inbounds nuw i8, ptr %.val.i, i64 22
  %40 = load i8, ptr %39, align 2
  %41 = zext i8 %40 to i64
  %42 = getelementptr inbounds nuw i8, ptr %.val.i, i64 %41
  %43 = getelementptr inbounds nuw i8, ptr %42, i64 92
  %44 = load i32, ptr %43, align 4
  %.not.i = icmp eq i32 %44, 0
  br i1 %.not.i, label %45, label %getTypeIOParam.exit

45:                                               ; preds = %25
  %46 = load i32, ptr %42, align 4
  br label %getTypeIOParam.exit

getTypeIOParam.exit:                              ; preds = %25, %45
  %.0.i = phi i32 [ %46, %45 ], [ %44, %25 ]
  store i32 %.0.i, ptr %6, align 4
  %47 = icmp ult i32 %1, 4
  br i1 %47, label %switch.lookup, label %53

switch.lookup:                                    ; preds = %getTypeIOParam.exit
  %48 = shl nuw nsw i32 %1, 2
  %49 = zext nneg i32 %48 to i64
  %50 = getelementptr inbounds nuw i8, ptr %30, i64 %49
  %51 = getelementptr inbounds nuw i8, ptr %50, i64 100
  %52 = load i32, ptr %51, align 4
  store i32 %52, ptr %7, align 4
  br label %53

53:                                               ; preds = %getTypeIOParam.exit, %switch.lookup
  tail call void @ReleaseSysCache(ptr noundef nonnull %21) #8
  br label %54

54:                                               ; preds = %53, %18
  ret void
}